target datalayout = "e-m:e-p270:32:32-p271:32:32-p272:64:64-i64:64-i128:128-f80:128-n8:16:32:64-S128"
target triple = "x86_64-pc-linux-gnu"

%struct._lv_canvas_t = type { %struct._lv_image_t, ptr, %struct._lv_draw_buf_t }
%struct._lv_image_t = type { %struct._lv_obj_t, ptr, ptr, %struct.lv_point_t, i32, i32, i32, i32, i32, %struct.lv_point_t, i16 }
%struct._lv_obj_t = type { ptr, ptr, ptr, ptr, ptr, %struct.lv_area_t, i32, i16, i16 }
%struct.lv_area_t = type { i32, i32, i32, i32 }
%struct.lv_point_t = type { i32, i32 }
%struct._lv_draw_buf_t = type { %struct.lv_image_header_t, i32, ptr, ptr, ptr }
%struct.lv_image_header_t = type <{ i64, i32 }>

; Function Attrs: nounwind uwtable
define void @lv_canvas_copy_buf(ptr noundef %0, ptr noundef %1, ptr noundef %2, ptr noundef %3) #0 {
  %5 = alloca ptr, align 8
  %6 = alloca ptr, align 8
  %7 = alloca ptr, align 8
  %8 = alloca ptr, align 8
  %9 = alloca ptr, align 8
  %10 = alloca i32, align 4
  store ptr %0, ptr %5, align 8, !tbaa !3
  store ptr %1, ptr %6, align 8, !tbaa !3
  store ptr %2, ptr %7, align 8, !tbaa !3
  store ptr %3, ptr %8, align 8, !tbaa !3
  br label %11

11:                                               ; preds = %4
  br label %12

12:                                               ; preds = %11
  br label %13

13:                                               ; preds = %12
  %14 = load ptr, ptr %6, align 8, !tbaa !3
  %15 = icmp ne ptr %14, null
  br i1 %15, label %16, label %19

16:                                               ; preds = %13
  %17 = load ptr, ptr %7, align 8, !tbaa !3
  %18 = icmp ne ptr %17, null
  br i1 %18, label %23, label %19

19:                                               ; preds = %16, %13
  br label %20

20:                                               ; preds = %19
  br label %21

21:                                               ; preds = %20
  br label %22

22:                                               ; preds = %21, %22
  br label %22

23:                                               ; preds = %16
  br label %24

24:                                               ; preds = %23
  call void @llvm.lifetime.start.p0(i64 8, ptr %9) #6
  %25 = load ptr, ptr %5, align 8, !tbaa !3
  store ptr %25, ptr %9, align 8, !tbaa !3
  %26 = load ptr, ptr %9, align 8, !tbaa !3
  %27 = getelementptr inbounds nuw %struct._lv_canvas_t, ptr %26, i32 0, i32 1
  %28 = load ptr, ptr %27, align 8, !tbaa !7
  %29 = icmp eq ptr %28, null
  br i1 %29, label %30, label %31

30:                                               ; preds = %24
  store i32 1, ptr %10, align 4
  br label %63

31:                                               ; preds = %24
  br label %32

32:                                               ; preds = %31
  %33 = load ptr, ptr %9, align 8, !tbaa !3
  %34 = getelementptr inbounds nuw %struct._lv_canvas_t, ptr %33, i32 0, i32 1
  %35 = load ptr, ptr %34, align 8, !tbaa !7
  %36 = getelementptr inbounds nuw %struct._lv_draw_buf_t, ptr %35, i32 0, i32 0
  %37 = load i64, ptr %36, align 8
  %38 = lshr i64 %37, 8
  %39 = and i64 %38, 255
  %40 = trunc i64 %39 to i32
  %41 = load ptr, ptr %7, align 8, !tbaa !3
  %42 = getelementptr inbounds nuw %struct._lv_draw_buf_t, ptr %41, i32 0, i32 0
  %43 = load i64, ptr %42, align 8
  %44 = lshr i64 %43, 8
  %45 = and i64 %44, 255
  %46 = trunc i64 %45 to i32
  %47 = icmp eq i32 %40, %46
  br i1 %47, label %54, label %48

48:                                               ; preds = %32
  br label %49

49:                                               ; preds = %48
  br label %50

50:                                               ; preds = %49
  br label %51

51:                                               ; preds = %50
  br label %52

52:                                               ; preds = %53, %51
  br label %53

53:                                               ; preds = %52
  br label %52

54:                                               ; preds = %32
  br label %55

55:                                               ; preds = %54
  br label %56

56:                                               ; preds = %55
  %57 = load ptr, ptr %9, align 8, !tbaa !3
  %58 = getelementptr inbounds nuw %struct._lv_canvas_t, ptr %57, i32 0, i32 1
  %59 = load ptr, ptr %58, align 8, !tbaa !7
  %60 = load ptr, ptr %6, align 8, !tbaa !3
  %61 = load ptr, ptr %7, align 8, !tbaa !3
  %62 = load ptr, ptr %8, align 8, !tbaa !3
  call void @lv_draw_buf_copy(ptr noundef %59, ptr noundef %60, ptr noundef %61, ptr noundef %62)
  store i32 0, ptr %10, align 4
  br label %63

63:                                               ; preds = %56, %30
  call void @llvm.lifetime.end.p0(i64 8, ptr %9) #6
  %64 = load i32, ptr %10, align 4
  switch i32 %64, label %66 [
    i32 0, label %65
    i32 1, label %65
  ]

65:                                               ; preds = %63, %63
  ret void

66:                                               ; preds = %63
  unreachable
}