; Function Attrs: nounwind uwtable
define void @lv_canvas_copy_buf(ptr nocapture noundef readonly %0, ptr noundef %1, ptr noundef %2, ptr noundef %3) local_unnamed_addr #1 {
  %5 = icmp ne ptr %1, null
  %6 = icmp ne ptr %2, null
  %or.cond = and i1 %5, %6
  br i1 %or.cond, label %7, label %.preheader13

.preheader13:                                     ; preds = %4, %.preheader13
  br label %.preheader13

7:                                                ; preds = %4
  %8 = getelementptr inbounds nuw i8, ptr %0, i64 120
  %9 = load ptr, ptr %8, align 8, !tbaa !3
  %10 = icmp eq ptr %9, null
  br i1 %10, label %18, label %11

11:                                               ; preds = %7
  %12 = load i64, ptr %9, align 8
  %13 = load i64, ptr %2, align 8
  %14 = xor i64 %13, %12
  %15 = and i64 %14, 65280
  %16 = icmp eq i64 %15, 0
  br i1 %16, label %17, label %.preheader

.preheader:                                       ; preds = %11, %.preheader
  br label %.preheader

17:                                               ; preds = %11
  tail call void @lv_draw_buf_copy(ptr noundef nonnull %9, ptr noundef nonnull %1, ptr noundef nonnull %2, ptr noundef %3) #5
  br label %18

18:                                               ; preds = %7, %17
  ret void
}